target datalayout = "e-m:e-p270:32:32-p271:32:32-p272:64:64-i64:64-i128:128-f80:128-n8:16:32:64-S128"
target triple = "x86_64-pc-linux-gnu"

%struct._typeobject = type { %struct.PyVarObject, ptr, i64, i64, ptr, i64, ptr, ptr, ptr, ptr, ptr, ptr, ptr, ptr, ptr, ptr, ptr, ptr, ptr, i64, ptr, ptr, ptr, ptr, i64, ptr, ptr, ptr, ptr, ptr, ptr, ptr, ptr, ptr, i64, ptr, ptr, ptr, ptr, ptr, ptr, ptr, ptr, ptr, ptr, ptr, i32, ptr, ptr, i8, i16 }
%struct.PyVarObject = type { %struct._object, i64 }
%struct._object = type { %union.anon, ptr }
%union.anon = type { i64 }

@PyLong_Type = external global %struct._typeobject, align 8
@PyBool_Type = external global %struct._typeobject, align 8

; Function Attrs: inlinehint nounwind uwtable
define internal ptr @_Py_TYPE(ptr noundef %0) #4 {
  %2 = alloca ptr, align 8
  store ptr %0, ptr %2, align 8, !tbaa !18
  %3 = load ptr, ptr %2, align 8, !tbaa !18
  %4 = getelementptr inbounds nuw %struct._object, ptr %3, i32 0, i32 1
  %5 = load ptr, ptr %4, align 8, !tbaa !33
  ret ptr %5
}

; Function Attrs: inlinehint nounwind uwtable
define internal i32 @Py_IS_TYPE(ptr noundef %0, ptr noundef %1) #4 {
  %3 = alloca ptr, align 8
  %4 = alloca ptr, align 8
  store ptr %0, ptr %3, align 8, !tbaa !18
  store ptr %1, ptr %4, align 8, !tbaa !25
  %5 = load ptr, ptr %3, align 8, !tbaa !18
  %6 = call ptr @_Py_TYPE(ptr noundef %5)
  %7 = load ptr, ptr %4, align 8, !tbaa !25
  %8 = icmp eq ptr %6, %7
  %9 = zext i1 %8 to i32
  ret i32 %9
}

; Function Attrs: nounwind uwtable
define internal ptr @range_count(ptr noundef %0, ptr noundef %1) #0 {
  %3 = alloca ptr, align 8
  %4 = alloca ptr, align 8
  %5 = alloca ptr, align 8
  %6 = alloca i32, align 4
  %7 = alloca i32, align 4
  %8 = alloca i64, align 8
  store ptr %0, ptr %4, align 8, !tbaa !4
  store ptr %1, ptr %5, align 8, !tbaa !18
  %9 = load ptr, ptr %5, align 8, !tbaa !18
  %10 = call i32 @Py_IS_TYPE(ptr noundef %9, ptr noundef @PyLong_Type)
  %11 = icmp ne i32 %10, 0
  br i1 %11, label %16, label %12

12:                                               ; preds = %2
  %13 = load ptr, ptr %5, align 8, !tbaa !18
  %14 = call i32 @Py_IS_TYPE(ptr noundef %13, ptr noundef @PyBool_Type)
  %15 = icmp ne i32 %14, 0
  br i1 %15, label %16, label %28

16:                                               ; preds = %12, %2
  call void @llvm.lifetime.start.p0(i64 4, ptr %6) #5
  %17 = load ptr, ptr %4, align 8, !tbaa !4
  %18 = load ptr, ptr %5, align 8, !tbaa !18
  %19 = call i32 @range_contains_long(ptr noundef %17, ptr noundef %18)
  store i32 %19, ptr %6, align 4, !tbaa !19
  %20 = load i32, ptr %6, align 4, !tbaa !19
  %21 = icmp eq i32 %20, -1
  br i1 %21, label %22, label %23

22:                                               ; preds = %16
  store ptr null, ptr %3, align 8
  store i32 1, ptr %7, align 4
  br label %27

23:                                               ; preds = %16
  %24 = load i32, ptr %6, align 4, !tbaa !19
  %25 = sext i32 %24 to i64
  %26 = call ptr @PyLong_FromLong(i64 noundef %25)
  store ptr %26, ptr %3, align 8
  store i32 1, ptr %7, align 4
  br label %27

27:                                               ; preds = %23, %22
  call void @llvm.lifetime.end.p0(i64 4, ptr %6) #5
  br label %39

28:                                               ; preds = %12
  call void @llvm.lifetime.start.p0(i64 8, ptr %8) #5
  %29 = load ptr, ptr %4, align 8, !tbaa !4
  %30 = load ptr, ptr %5, align 8, !tbaa !18
  %31 = call i64 @_PySequence_IterSearch(ptr noundef %29, ptr noundef %30, i32 noundef 1)
  store i64 %31, ptr %8, align 8, !tbaa !16
  %32 = load i64, ptr %8, align 8, !tbaa !16
  %33 = icmp eq i64 %32, -1
  br i1 %33, label %34, label %35

34:                                               ; preds = %28
  store ptr null, ptr %3, align 8
  store i32 1, ptr %7, align 4
  br label %38

35:                                               ; preds = %28
  %36 = load i64, ptr %8, align 8, !tbaa !16
  %37 = call ptr @PyLong_FromSsize_t(i64 noundef %36)
  store ptr %37, ptr %3, align 8
  store i32 1, ptr %7, align 4
  br label %38

38:                                               ; preds = %35, %34
  call void @llvm.lifetime.end.p0(i64 8, ptr %8) #5
  br label %39

39:                                               ; preds = %38, %27
  %40 = load ptr, ptr %3, align 8
  ret ptr %40
}