; Function Attrs: nounwind uwtable
define internal ptr @range_count(ptr noundef %0, ptr noundef %1) #0 {
  %3 = getelementptr i8, ptr %1, i64 8
  %.val13 = load ptr, ptr %3, align 8, !tbaa !17
  %.not = icmp eq ptr %.val13, @PyLong_Type
  %.not14 = icmp eq ptr %.val13, @PyBool_Type
  %or.cond = or i1 %.not, %.not14
  br i1 %or.cond, label %4, label %10

4:                                                ; preds = %2
  %5 = tail call fastcc i32 @range_contains_long(ptr noundef %0, ptr noundef nonnull %1)
  %6 = icmp eq i32 %5, -1
  br i1 %6, label %15, label %7

7:                                                ; preds = %4
  %8 = sext i32 %5 to i64
  %9 = tail call ptr @PyLong_FromLong(i64 noundef %8) #6
  br label %15

10:                                               ; preds = %2
  %11 = tail call i64 @_PySequence_IterSearch(ptr noundef %0, ptr noundef nonnull %1, i32 noundef 1) #6
  %12 = icmp eq i64 %11, -1
  br i1 %12, label %15, label %13

13:                                               ; preds = %10
  %14 = tail call ptr @PyLong_FromSsize_t(i64 noundef %11) #6
  br label %15

15:                                               ; preds = %13, %10, %7, %4
  %.1 = phi ptr [ %9, %7 ], [ null, %4 ], [ %14, %13 ], [ null, %10 ]
  ret ptr %.1
}